; Function Attrs: mustprogress nofree norecurse nosync nounwind memory(argmem: readwrite) uwtable
define void @_ZN5arrow8internal19ReverseBlockOffsetsEPKhlllPh(ptr noundef readonly captures(none) %0, i64 noundef %1, i64 noundef %2, i64 noundef %3, ptr noundef captures(none) %4) local_unnamed_addr #5 {
  %6 = sdiv i64 %1, 8
  %7 = srem i64 %1, 8
  %8 = getelementptr inbounds i8, ptr %0, i64 %6
  %9 = sdiv i64 %3, 8
  %10 = getelementptr inbounds i8, ptr %4, i64 %9
  %invariant.gep = getelementptr i8, ptr %8, i64 -1
  %11 = icmp sgt i64 %2, 0
  br i1 %11, label %.lr.ph.preheader, label %._crit_edge

.lr.ph.preheader:                                 ; preds = %5
  %12 = add nsw i64 %7, %2
  %13 = ashr i64 %12, 3
  %14 = add nsw i64 %13, -1
  %15 = and i64 %12, 7
  %16 = icmp ne i64 %15, 0
  %17 = zext i1 %16 to i64
  %18 = add nsw i64 %14, %17
  br label %.lr.ph

.lr.ph:                                           ; preds = %.lr.ph.preheader, %49
  %.04858 = phi i64 [ %65, %49 ], [ %2, %.lr.ph.preheader ]
  %.04957 = phi i64 [ %67, %49 ], [ 0, %.lr.ph.preheader ]
  %.05056 = phi i64 [ %spec.select, %49 ], [ %18, %.lr.ph.preheader ]
  %.05155 = phi i64 [ %64, %49 ], [ %3, %.lr.ph.preheader ]
  %19 = add nsw i64 %.04858, %1
  %20 = srem i64 %19, 8
  %21 = trunc nsw i64 %20 to i8
  %.not = icmp eq i64 %20, 0
  %22 = select i1 %.not, i8 8, i8 %21
  %23 = srem i64 %.05155, 8
  %24 = trunc nsw i64 %23 to i8
  %25 = sub nsw i8 8, %24
  %26 = zext nneg i8 %25 to i32
  %27 = sub nsw i32 8, %26
  %28 = shl nuw nsw i32 255, %27
  %29 = icmp samesign ult i64 %.04858, 9
  br i1 %29, label %30, label %39

30:                                               ; preds = %.lr.ph
  %31 = add nsw i64 %.04858, %23
  %32 = icmp slt i64 %31, 8
  br i1 %32, label %33, label %39

33:                                               ; preds = %30
  %34 = trunc i64 %31 to i32
  %35 = sub nsw i32 8, %34
  %36 = shl i32 %28, %35
  %37 = and i32 %36, 255
  %38 = lshr i32 %37, %35
  br label %39

39:                                               ; preds = %33, %30, %.lr.ph
  %.047.in = phi i32 [ %38, %33 ], [ %28, %30 ], [ %28, %.lr.ph ]
  %40 = icmp eq i64 %.05056, 0
  br i1 %40, label %41, label %46

41:                                               ; preds = %39
  %42 = load i8, ptr %8, align 1, !tbaa !3
  %43 = zext i8 %42 to i32
  %44 = shl nuw nsw i32 %43, 8
  %45 = or disjoint i32 %44, %43
  br label %49

46:                                               ; preds = %39
  %gep = getelementptr i8, ptr %invariant.gep, i64 %.05056
  %47 = load i16, ptr %gep, align 1
  %48 = zext i16 %47 to i32
  br label %49

49:                                               ; preds = %46, %41
  %.sink = phi i32 [ %48, %46 ], [ %45, %41 ]
  %50 = zext nneg i8 %22 to i32
  %51 = lshr i32 %.sink, %50
  %52 = trunc i32 %51 to i8
  %rev.i.i54 = tail call noundef i8 @llvm.bitreverse.i8(i8 %52)
  %53 = getelementptr inbounds nuw i8, ptr %10, i64 %.04957
  %54 = load i8, ptr %53, align 1, !tbaa !3
  %55 = trunc i32 %.047.in to i8
  %56 = xor i8 %55, -1
  %57 = and i8 %54, %56
  %58 = zext i8 %rev.i.i54 to i32
  %59 = shl nuw nsw i32 %58, %27
  %60 = and i32 %59, %.047.in
  %61 = trunc i32 %60 to i8
  %62 = or i8 %57, %61
  store i8 %62, ptr %53, align 1, !tbaa !3
  %63 = zext nneg i8 %25 to i64
  %64 = add nsw i64 %.05155, %63
  %65 = sub nsw i64 %.04858, %63
  %.not53 = icmp uge i8 %25, %22
  %66 = sext i1 %.not53 to i64
  %spec.select = add nsw i64 %.05056, %66
  %67 = add nuw nsw i64 %.04957, 1
  %68 = icmp sgt i64 %65, 0
  br i1 %68, label %.lr.ph, label %._crit_edge, !llvm.loop !24

._crit_edge:                                      ; preds = %49, %5
  ret void
}